target datalayout = "e-m:e-p270:32:32-p271:32:32-p272:64:64-i64:64-i128:128-f80:128-n8:16:32:64-S128"
target triple = "x86_64-pc-linux-gnu"

%struct.ma_allocation_callbacks = type { ptr, ptr, ptr, ptr }

; Function Attrs: nounwind uwtable
define internal ptr @ma__realloc_default(ptr noundef %0, i64 noundef %1, ptr noundef %2) #0 {
  %4 = alloca ptr, align 8
  %5 = alloca i64, align 8
  %6 = alloca ptr, align 8
  store ptr %0, ptr %4, align 8
  store i64 %1, ptr %5, align 8
  store ptr %2, ptr %6, align 8
  %7 = load ptr, ptr %4, align 8
  %8 = load i64, ptr %5, align 8
  %9 = call ptr @realloc(ptr noundef %7, i64 noundef %8) #28
  ret ptr %9
}

; Function Attrs: nounwind uwtable
define hidden ptr @ma_realloc(ptr noundef %0, i64 noundef %1, ptr noundef %2) #0 {
  %4 = alloca ptr, align 8
  %5 = alloca ptr, align 8
  %6 = alloca i64, align 8
  %7 = alloca ptr, align 8
  store ptr %0, ptr %5, align 8
  store i64 %1, ptr %6, align 8
  store ptr %2, ptr %7, align 8
  %8 = load ptr, ptr %7, align 8
  %9 = icmp ne ptr %8, null
  br i1 %9, label %10, label %26

10:                                               ; preds = %3
  %11 = load ptr, ptr %7, align 8
  %12 = getelementptr inbounds nuw %struct.ma_allocation_callbacks, ptr %11, i32 0, i32 2
  %13 = load ptr, ptr %12, align 8
  %14 = icmp ne ptr %13, null
  br i1 %14, label %15, label %25

15:                                               ; preds = %10
  %16 = load ptr, ptr %7, align 8
  %17 = getelementptr inbounds nuw %struct.ma_allocation_callbacks, ptr %16, i32 0, i32 2
  %18 = load ptr, ptr %17, align 8
  %19 = load ptr, ptr %5, align 8
  %20 = load i64, ptr %6, align 8
  %21 = load ptr, ptr %7, align 8
  %22 = getelementptr inbounds nuw %struct.ma_allocation_callbacks, ptr %21, i32 0, i32 0
  %23 = load ptr, ptr %22, align 8
  %24 = call ptr %18(ptr noundef %19, i64 noundef %20, ptr noundef %23)
  store ptr %24, ptr %4, align 8
  br label %30

25:                                               ; preds = %10
  store ptr null, ptr %4, align 8
  br label %30

26:                                               ; preds = %3
  %27 = load ptr, ptr %5, align 8
  %28 = load i64, ptr %6, align 8
  %29 = call ptr @ma__realloc_default(ptr noundef %27, i64 noundef %28, ptr noundef null)
  store ptr %29, ptr %4, align 8
  br label %30

30:                                               ; preds = %26, %25, %15
  %31 = load ptr, ptr %4, align 8
  ret ptr %31
}