; Function Attrs: nounwind uwtable
define hidden ptr @ma_realloc(ptr noundef %0, i64 noundef %1, ptr noundef readonly captures(address_is_null) %2) local_unnamed_addr #7 {
  %.not = icmp eq ptr %2, null
  br i1 %.not, label %10, label %4

4:                                                ; preds = %3
  %5 = getelementptr inbounds nuw i8, ptr %2, i64 16
  %6 = load ptr, ptr %5, align 8
  %.not10 = icmp eq ptr %6, null
  br i1 %.not10, label %12, label %7

7:                                                ; preds = %4
  %8 = load ptr, ptr %2, align 8
  %9 = tail call ptr %6(ptr noundef %0, i64 noundef %1, ptr noundef %8) #72
  br label %12

10:                                               ; preds = %3
  %11 = tail call noalias noundef ptr @realloc(ptr noundef %0, i64 noundef %1) #87
  br label %12

12:                                               ; preds = %4, %10, %7
  %.0 = phi ptr [ %9, %7 ], [ %11, %10 ], [ null, %4 ]
  ret ptr %.0
}